; Function Attrs: mustprogress uwtable
define internal fastcc void @"_ZSt10accumulateIN9__gnu_cxx17__normal_iteratorIPKiSt6vectorIiSaIiEEEENSt7__cxx1112basic_stringIcSt11char_traitsIcESaIcEEEZN2cv3dnn8DiagonalERKNSE_3MatEiiE3$_0ET0_T_SL_SK_T1_"(ptr dead_on_unwind noalias writable align 8 %0, ptr readonly %1, ptr readnone %2, ptr noundef %3) unnamed_addr #3 personality ptr @__gxx_personality_v0 {
  %5 = alloca %"class.std::__cxx11::basic_string", align 8
  %6 = alloca %"class.std::__cxx11::basic_string", align 8
  %7 = alloca %"class.std::__cxx11::basic_string", align 8
  %.not4 = icmp eq ptr %1, %2
  br i1 %.not4, label %._crit_edge, label %.lr.ph

.lr.ph:                                           ; preds = %4, %"_ZZN2cv3dnn8DiagonalERKNS_3MatEiiENK3$_0clERKNSt7__cxx1112basic_stringIcSt11char_traitsIcESaIcEEEi.exit"
  %.sroa.01.05 = phi ptr [ %26, %"_ZZN2cv3dnn8DiagonalERKNS_3MatEiiENK3$_0clERKNSt7__cxx1112basic_stringIcSt11char_traitsIcESaIcEEEi.exit" ], [ %1, %4 ]
  %8 = load i32, ptr %.sroa.01.05, align 4
  call void @llvm.lifetime.start.p0(i64 32, ptr nonnull %5)
  call void @llvm.lifetime.start.p0(i64 32, ptr nonnull %6)
  call void @_ZNSt7__cxx1112basic_stringIcSt11char_traitsIcESaIcEEC1ERKS4_(ptr noundef nonnull align 8 dereferenceable(32) %5, ptr noundef nonnull align 8 dereferenceable(32) %3), !noalias !25
  %9 = invoke noundef nonnull align 8 dereferenceable(32) ptr @_ZNSt7__cxx1112basic_stringIcSt11char_traitsIcESaIcEE6appendEmc(ptr noundef nonnull align 8 dereferenceable(32) %5, i64 noundef 1, i8 noundef signext 32)
          to label %_ZStplIcSt11char_traitsIcESaIcEENSt7__cxx1112basic_stringIT_T0_T1_EERKS8_S5_.exit.i unwind label %10, !noalias !25

common.resume.i:                                  ; preds = %23, %10
  %common.resume.op.i = phi { ptr, i32 } [ %11, %10 ], [ %24, %23 ]
  call void @_ZNSt7__cxx1112basic_stringIcSt11char_traitsIcESaIcEED1Ev(ptr noundef nonnull align 8 dereferenceable(32) %5) #21, !noalias !25
  resume { ptr, i32 } %common.resume.op.i

10:                                               ; preds = %.lr.ph
  %11 = landingpad { ptr, i32 }
          cleanup
  br label %common.resume.i

_ZStplIcSt11char_traitsIcESaIcEENSt7__cxx1112basic_stringIT_T0_T1_EERKS8_S5_.exit.i: ; preds = %.lr.ph
  call void @_ZNSt7__cxx119to_stringEi(ptr dead_on_unwind nonnull writable sret(%"class.std::__cxx11::basic_string") align 8 %6, i32 noundef %8) #21, !noalias !25
  %12 = call noundef i64 @_ZNKSt7__cxx1112basic_stringIcSt11char_traitsIcESaIcEE4sizeEv(ptr noundef nonnull align 8 dereferenceable(32) %5) #21, !noalias !28
  %13 = call noundef i64 @_ZNKSt7__cxx1112basic_stringIcSt11char_traitsIcESaIcEE4sizeEv(ptr noundef nonnull align 8 dereferenceable(32) %6) #21, !noalias !28
  %14 = add i64 %13, %12
  %15 = call noundef i64 @_ZNKSt7__cxx1112basic_stringIcSt11char_traitsIcESaIcEE8capacityEv(ptr noundef nonnull align 8 dereferenceable(32) %5) #21, !noalias !28
  %16 = icmp ugt i64 %14, %15
  br i1 %16, label %17, label %21

17:                                               ; preds = %_ZStplIcSt11char_traitsIcESaIcEENSt7__cxx1112basic_stringIT_T0_T1_EERKS8_S5_.exit.i
  %18 = call noundef i64 @_ZNKSt7__cxx1112basic_stringIcSt11char_traitsIcESaIcEE8capacityEv(ptr noundef nonnull align 8 dereferenceable(32) %6) #21, !noalias !28
  %.not.i.i = icmp ugt i64 %14, %18
  br i1 %.not.i.i, label %21, label %19

19:                                               ; preds = %17
  %20 = invoke noundef nonnull align 8 dereferenceable(32) ptr @_ZNSt7__cxx1112basic_stringIcSt11char_traitsIcESaIcEE6insertEmRKS4_(ptr noundef nonnull align 8 dereferenceable(32) %6, i64 noundef 0, ptr noundef nonnull align 8 dereferenceable(32) %5)
          to label %"_ZZN2cv3dnn8DiagonalERKNS_3MatEiiENK3$_0clERKNSt7__cxx1112basic_stringIcSt11char_traitsIcESaIcEEEi.exit" unwind label %23, !noalias !25

21:                                               ; preds = %17, %_ZStplIcSt11char_traitsIcESaIcEENSt7__cxx1112basic_stringIT_T0_T1_EERKS8_S5_.exit.i
  %22 = invoke noundef nonnull align 8 dereferenceable(32) ptr @_ZNSt7__cxx1112basic_stringIcSt11char_traitsIcESaIcEE6appendERKS4_(ptr noundef nonnull align 8 dereferenceable(32) %5, ptr noundef nonnull align 8 dereferenceable(32) %6)
          to label %"_ZZN2cv3dnn8DiagonalERKNS_3MatEiiENK3$_0clERKNSt7__cxx1112basic_stringIcSt11char_traitsIcESaIcEEEi.exit" unwind label %23, !noalias !25

23:                                               ; preds = %21, %19
  %24 = landingpad { ptr, i32 }
          cleanup
  call void @_ZNSt7__cxx1112basic_stringIcSt11char_traitsIcESaIcEED1Ev(ptr noundef nonnull align 8 dereferenceable(32) %6) #21, !noalias !25
  br label %common.resume.i

"_ZZN2cv3dnn8DiagonalERKNS_3MatEiiENK3$_0clERKNSt7__cxx1112basic_stringIcSt11char_traitsIcESaIcEEEi.exit": ; preds = %19, %21
  %.sink.i.i = phi ptr [ %20, %19 ], [ %22, %21 ]
  call void @_ZNSt7__cxx1112basic_stringIcSt11char_traitsIcESaIcEEC1EOS4_(ptr noundef nonnull align 8 dereferenceable(32) %7, ptr noundef nonnull align 8 dereferenceable(32) %.sink.i.i) #21
  call void @_ZNSt7__cxx1112basic_stringIcSt11char_traitsIcESaIcEED1Ev(ptr noundef nonnull align 8 dereferenceable(32) %6) #21
  call void @_ZNSt7__cxx1112basic_stringIcSt11char_traitsIcESaIcEED1Ev(ptr noundef nonnull align 8 dereferenceable(32) %5) #21
  call void @llvm.lifetime.end.p0(i64 32, ptr nonnull %5)
  call void @llvm.lifetime.end.p0(i64 32, ptr nonnull %6)
  %25 = call noundef nonnull align 8 dereferenceable(32) ptr @_ZNSt7__cxx1112basic_stringIcSt11char_traitsIcESaIcEEaSEOS4_(ptr noundef nonnull align 8 dereferenceable(32) %3, ptr noundef nonnull align 8 dereferenceable(32) %7) #21
  call void @_ZNSt7__cxx1112basic_stringIcSt11char_traitsIcESaIcEED1Ev(ptr noundef nonnull align 8 dereferenceable(32) %7) #21
  %26 = getelementptr inbounds i8, ptr %.sroa.01.05, i64 4
  %.not = icmp eq ptr %26, %2
  br i1 %.not, label %._crit_edge, label %.lr.ph, !llvm.loop !31

._crit_edge:                                      ; preds = %"_ZZN2cv3dnn8DiagonalERKNS_3MatEiiENK3$_0clERKNSt7__cxx1112basic_stringIcSt11char_traitsIcESaIcEEEi.exit", %4
  call void @_ZNSt7__cxx1112basic_stringIcSt11char_traitsIcESaIcEEC1EOS4_(ptr noundef nonnull align 8 dereferenceable(32) %0, ptr noundef nonnull align 8 dereferenceable(32) %3) #21
  ret void
}